target datalayout = "e-m:e-p270:32:32-p271:32:32-p272:64:64-i64:64-i128:128-f80:128-n8:16:32:64-S128"
target triple = "x86_64-pc-linux-gnu"

%struct.Kit_DsdNtk_t_ = type { i16, i16, i16, i16, ptr, ptr, ptr }
%struct.Kit_DsdObj_t_ = type { i32, [0 x i16] }

@.str = private unnamed_addr constant [3 x i8] c"%d\00", align 1
@.str.1 = private unnamed_addr constant [3 x i8] c"%c\00", align 1
@.str.2 = private unnamed_addr constant [7 x i8] c"Const1\00", align 1
@.str.4 = private unnamed_addr constant [2 x i8] c"(\00", align 1
@.str.5 = private unnamed_addr constant [2 x i8] c"!\00", align 1
@.str.7 = private unnamed_addr constant [2 x i8] c")\00", align 1

; Function Attrs: inlinehint nounwind uwtable
define internal i32 @Abc_Lit2Var(i32 noundef %0) #4 {
  %2 = alloca i32, align 4
  store i32 %0, ptr %2, align 4, !tbaa !3
  %3 = load i32, ptr %2, align 4, !tbaa !3
  %4 = ashr i32 %3, 1
  ret i32 %4
}

; Function Attrs: inlinehint nounwind uwtable
define internal i32 @Abc_LitIsCompl(i32 noundef %0) #4 {
  %2 = alloca i32, align 4
  store i32 %0, ptr %2, align 4, !tbaa !3
  %3 = load i32, ptr %2, align 4, !tbaa !3
  %4 = and i32 %3, 1
  ret i32 %4
}

; Function Attrs: nounwind uwtable
define void @Kit_DsdPrintHex(ptr noundef %0, ptr noundef %1, i32 noundef %2) #0 {
  %4 = alloca ptr, align 8
  %5 = alloca ptr, align 8
  %6 = alloca i32, align 4
  %7 = alloca i32, align 4
  %8 = alloca i32, align 4
  %9 = alloca i32, align 4
  store ptr %0, ptr %4, align 8, !tbaa !51
  store ptr %1, ptr %5, align 8, !tbaa !25
  store i32 %2, ptr %6, align 4, !tbaa !3
  call void @llvm.lifetime.start.p0(i64 4, ptr %7) #9
  call void @llvm.lifetime.start.p0(i64 4, ptr %8) #9
  call void @llvm.lifetime.start.p0(i64 4, ptr %9) #9
  %10 = load i32, ptr %6, align 4, !tbaa !3
  %11 = shl i32 1, %10
  %12 = sdiv i32 %11, 4
  store i32 %12, ptr %7, align 4, !tbaa !3
  %13 = load i32, ptr %7, align 4, !tbaa !3
  %14 = sub nsw i32 %13, 1
  store i32 %14, ptr %9, align 4, !tbaa !3
  br label %15

15:                                               ; preds = %43, %3
  %16 = load i32, ptr %9, align 4, !tbaa !3
  %17 = icmp sge i32 %16, 0
  br i1 %17, label %18, label %46

18:                                               ; preds = %15
  %19 = load ptr, ptr %5, align 8, !tbaa !25
  %20 = load i32, ptr %9, align 4, !tbaa !3
  %21 = sdiv i32 %20, 8
  %22 = sext i32 %21 to i64
  %23 = getelementptr inbounds i32, ptr %19, i64 %22
  %24 = load i32, ptr %23, align 4, !tbaa !3
  %25 = load i32, ptr %9, align 4, !tbaa !3
  %26 = srem i32 %25, 8
  %27 = mul nsw i32 %26, 4
  %28 = lshr i32 %24, %27
  %29 = and i32 %28, 15
  store i32 %29, ptr %8, align 4, !tbaa !3
  %30 = load i32, ptr %8, align 4, !tbaa !3
  %31 = icmp slt i32 %30, 10
  br i1 %31, label %32, label %36

32:                                               ; preds = %18
  %33 = load ptr, ptr %4, align 8, !tbaa !51
  %34 = load i32, ptr %8, align 4, !tbaa !3
  %35 = call i32 (ptr, ptr, ...) @fprintf(ptr noundef %33, ptr noundef @.str, i32 noundef %34) #9
  br label %42

36:                                               ; preds = %18
  %37 = load ptr, ptr %4, align 8, !tbaa !51
  %38 = load i32, ptr %8, align 4, !tbaa !3
  %39 = add nsw i32 65, %38
  %40 = sub nsw i32 %39, 10
  %41 = call i32 (ptr, ptr, ...) @fprintf(ptr noundef %37, ptr noundef @.str.1, i32 noundef %40) #9
  br label %42

42:                                               ; preds = %36, %32
  br label %43

43:                                               ; preds = %42
  %44 = load i32, ptr %9, align 4, !tbaa !3
  %45 = add nsw i32 %44, -1
  store i32 %45, ptr %9, align 4, !tbaa !3
  br label %15, !llvm.loop !53

46:                                               ; preds = %15
  call void @llvm.lifetime.end.p0(i64 4, ptr %9) #9
  call void @llvm.lifetime.end.p0(i64 4, ptr %8) #9
  call void @llvm.lifetime.end.p0(i64 4, ptr %7) #9
  ret void
}

; Function Attrs: inlinehint nounwind uwtable
define internal ptr @Kit_DsdObjTruth(ptr noundef %0) #4 {
  %2 = alloca ptr, align 8
  store ptr %0, ptr %2, align 8, !tbaa !39
  %3 = load ptr, ptr %2, align 8, !tbaa !39
  %4 = load i32, ptr %3, align 4
  %5 = lshr i32 %4, 6
  %6 = and i32 %5, 7
  %7 = icmp eq i32 %6, 5
  br i1 %7, label %8, label %18

8:                                                ; preds = %1
  %9 = load ptr, ptr %2, align 8, !tbaa !39
  %10 = getelementptr inbounds nuw %struct.Kit_DsdObj_t_, ptr %9, i32 0, i32 1
  %11 = getelementptr inbounds [0 x i16], ptr %10, i64 0, i64 0
  %12 = load ptr, ptr %2, align 8, !tbaa !39
  %13 = load i32, ptr %12, align 4
  %14 = lshr i32 %13, 10
  %15 = and i32 %14, 255
  %16 = sext i32 %15 to i64
  %17 = getelementptr inbounds i32, ptr %11, i64 %16
  br label %19

18:                                               ; preds = %1
  br label %19

19:                                               ; preds = %18, %8
  %20 = phi ptr [ %17, %8 ], [ null, %18 ]
  ret ptr %20
}

; Function Attrs: inlinehint nounwind uwtable
define internal ptr @Kit_DsdNtkObj(ptr noundef %0, i32 noundef %1) #4 {
  %3 = alloca ptr, align 8
  %4 = alloca i32, align 4
  store ptr %0, ptr %3, align 8, !tbaa !37
  store i32 %1, ptr %4, align 4, !tbaa !3
  %5 = load i32, ptr %4, align 4, !tbaa !3
  %6 = load ptr, ptr %3, align 8, !tbaa !37
  %7 = getelementptr inbounds nuw %struct.Kit_DsdNtk_t_, ptr %6, i32 0, i32 0
  %8 = load i16, ptr %7, align 8, !tbaa !41
  %9 = zext i16 %8 to i32
  %10 = icmp slt i32 %5, %9
  br i1 %10, label %11, label %12

11:                                               ; preds = %2
  br label %25

12:                                               ; preds = %2
  %13 = load ptr, ptr %3, align 8, !tbaa !37
  %14 = getelementptr inbounds nuw %struct.Kit_DsdNtk_t_, ptr %13, i32 0, i32 6
  %15 = load ptr, ptr %14, align 8, !tbaa !47
  %16 = load i32, ptr %4, align 4, !tbaa !3
  %17 = load ptr, ptr %3, align 8, !tbaa !37
  %18 = getelementptr inbounds nuw %struct.Kit_DsdNtk_t_, ptr %17, i32 0, i32 0
  %19 = load i16, ptr %18, align 8, !tbaa !41
  %20 = zext i16 %19 to i32
  %21 = sub nsw i32 %16, %20
  %22 = sext i32 %21 to i64
  %23 = getelementptr inbounds ptr, ptr %15, i64 %22
  %24 = load ptr, ptr %23, align 8, !tbaa !39
  br label %25

25:                                               ; preds = %12, %11
  %26 = phi ptr [ null, %11 ], [ %24, %12 ]
  ret ptr %26
}

; Function Attrs: nounwind uwtable
define void @Kit_DsdPrint_rec(ptr noundef %0, ptr noundef %1, i32 noundef %2) #0 {
  %4 = alloca ptr, align 8
  %5 = alloca ptr, align 8
  %6 = alloca i32, align 4
  %7 = alloca ptr, align 8
  %8 = alloca i32, align 4
  %9 = alloca i32, align 4
  %10 = alloca i8, align 1
  %11 = alloca i32, align 4
  store ptr %0, ptr %4, align 8, !tbaa !51
  store ptr %1, ptr %5, align 8, !tbaa !37
  store i32 %2, ptr %6, align 4, !tbaa !3
  call void @llvm.lifetime.start.p0(i64 8, ptr %7) #9
  call void @llvm.lifetime.start.p0(i64 4, ptr %8) #9
  call void @llvm.lifetime.start.p0(i64 4, ptr %9) #9
  call void @llvm.lifetime.start.p0(i64 1, ptr %10) #9
  %12 = load ptr, ptr %5, align 8, !tbaa !37
  %13 = load i32, ptr %6, align 4, !tbaa !3
  %14 = call ptr @Kit_DsdNtkObj(ptr noundef %12, i32 noundef %13)
  store ptr %14, ptr %7, align 8, !tbaa !39
  %15 = load ptr, ptr %7, align 8, !tbaa !39
  %16 = icmp eq ptr %15, null
  br i1 %16, label %17, label %22

17:                                               ; preds = %3
  %18 = load ptr, ptr %4, align 8, !tbaa !51
  %19 = load i32, ptr %6, align 4, !tbaa !3
  %20 = add nsw i32 97, %19
  %21 = call i32 (ptr, ptr, ...) @fprintf(ptr noundef %18, ptr noundef @.str.1, i32 noundef %20) #9
  store i32 1, ptr %11, align 4
  br label %116

22:                                               ; preds = %3
  %23 = load ptr, ptr %7, align 8, !tbaa !39
  %24 = load i32, ptr %23, align 4
  %25 = lshr i32 %24, 6
  %26 = and i32 %25, 7
  %27 = icmp eq i32 %26, 1
  br i1 %27, label %28, label %31

28:                                               ; preds = %22
  %29 = load ptr, ptr %4, align 8, !tbaa !51
  %30 = call i32 (ptr, ptr, ...) @fprintf(ptr noundef %29, ptr noundef @.str.2) #9
  store i32 1, ptr %11, align 4
  br label %116

31:                                               ; preds = %22
  %32 = load ptr, ptr %7, align 8, !tbaa !39
  %33 = load i32, ptr %32, align 4
  %34 = lshr i32 %33, 6
  %35 = and i32 %34, 7
  %36 = icmp eq i32 %35, 2
  br i1 %36, label %37, label %38

37:                                               ; preds = %31
  br label %38

38:                                               ; preds = %37, %31
  %39 = load ptr, ptr %7, align 8, !tbaa !39
  %40 = load i32, ptr %39, align 4
  %41 = lshr i32 %40, 6
  %42 = and i32 %41, 7
  %43 = icmp eq i32 %42, 3
  br i1 %43, label %44, label %45

44:                                               ; preds = %38
  store i8 42, ptr %10, align 1, !tbaa !56
  br label %54

45:                                               ; preds = %38
  %46 = load ptr, ptr %7, align 8, !tbaa !39
  %47 = load i32, ptr %46, align 4
  %48 = lshr i32 %47, 6
  %49 = and i32 %48, 7
  %50 = icmp eq i32 %49, 4
  br i1 %50, label %51, label %52

51:                                               ; preds = %45
  store i8 43, ptr %10, align 1, !tbaa !56
  br label %53

52:                                               ; preds = %45
  store i8 44, ptr %10, align 1, !tbaa !56
  br label %53

53:                                               ; preds = %52, %51
  br label %54

54:                                               ; preds = %53, %44
  %55 = load ptr, ptr %7, align 8, !tbaa !39
  %56 = load i32, ptr %55, align 4
  %57 = lshr i32 %56, 6
  %58 = and i32 %57, 7
  %59 = icmp eq i32 %58, 5
  br i1 %59, label %60, label %67

60:                                               ; preds = %54
  %61 = load ptr, ptr %4, align 8, !tbaa !51
  %62 = load ptr, ptr %7, align 8, !tbaa !39
  %63 = call ptr @Kit_DsdObjTruth(ptr noundef %62)
  %64 = load ptr, ptr %7, align 8, !tbaa !39
  %65 = load i32, ptr %64, align 4
  %66 = lshr i32 %65, 26
  call void @Kit_DsdPrintHex(ptr noundef %61, ptr noundef %63, i32 noundef %66)
  br label %67

67:                                               ; preds = %60, %54
  %68 = load ptr, ptr %4, align 8, !tbaa !51
  %69 = call i32 (ptr, ptr, ...) @fprintf(ptr noundef %68, ptr noundef @.str.4) #9
  store i32 0, ptr %9, align 4, !tbaa !3
  br label %70

70:                                               ; preds = %110, %67
  %71 = load i32, ptr %9, align 4, !tbaa !3
  %72 = load ptr, ptr %7, align 8, !tbaa !39
  %73 = load i32, ptr %72, align 4
  %74 = lshr i32 %73, 26
  %75 = icmp ult i32 %71, %74
  br i1 %75, label %76, label %84

76:                                               ; preds = %70
  %77 = load ptr, ptr %7, align 8, !tbaa !39
  %78 = getelementptr inbounds nuw %struct.Kit_DsdObj_t_, ptr %77, i32 0, i32 1
  %79 = load i32, ptr %9, align 4, !tbaa !3
  %80 = zext i32 %79 to i64
  %81 = getelementptr inbounds nuw [0 x i16], ptr %78, i64 0, i64 %80
  %82 = load i16, ptr %81, align 2, !tbaa !58
  %83 = zext i16 %82 to i32
  store i32 %83, ptr %8, align 4, !tbaa !3
  br label %84

84:                                               ; preds = %76, %70
  %85 = phi i1 [ false, %70 ], [ true, %76 ]
  br i1 %85, label %86, label %113

86:                                               ; preds = %84
  %87 = load i32, ptr %8, align 4, !tbaa !3
  %88 = call i32 @Abc_LitIsCompl(i32 noundef %87)
  %89 = icmp ne i32 %88, 0
  br i1 %89, label %90, label %93

90:                                               ; preds = %86
  %91 = load ptr, ptr %4, align 8, !tbaa !51
  %92 = call i32 (ptr, ptr, ...) @fprintf(ptr noundef %91, ptr noundef @.str.5) #9
  br label %93

93:                                               ; preds = %90, %86
  %94 = load ptr, ptr %4, align 8, !tbaa !51
  %95 = load ptr, ptr %5, align 8, !tbaa !37
  %96 = load i32, ptr %8, align 4, !tbaa !3
  %97 = call i32 @Abc_Lit2Var(i32 noundef %96)
  call void @Kit_DsdPrint_rec(ptr noundef %94, ptr noundef %95, i32 noundef %97)
  %98 = load i32, ptr %9, align 4, !tbaa !3
  %99 = load ptr, ptr %7, align 8, !tbaa !39
  %100 = load i32, ptr %99, align 4
  %101 = lshr i32 %100, 26
  %102 = sub nsw i32 %101, 1
  %103 = icmp ult i32 %98, %102
  br i1 %103, label %104, label %109

104:                                              ; preds = %93
  %105 = load ptr, ptr %4, align 8, !tbaa !51
  %106 = load i8, ptr %10, align 1, !tbaa !56
  %107 = sext i8 %106 to i32
  %108 = call i32 (ptr, ptr, ...) @fprintf(ptr noundef %105, ptr noundef @.str.1, i32 noundef %107) #9
  br label %109

109:                                              ; preds = %104, %93
  br label %110

110:                                              ; preds = %109
  %111 = load i32, ptr %9, align 4, !tbaa !3
  %112 = add i32 %111, 1
  store i32 %112, ptr %9, align 4, !tbaa !3
  br label %70, !llvm.loop !61

113:                                              ; preds = %84
  %114 = load ptr, ptr %4, align 8, !tbaa !51
  %115 = call i32 (ptr, ptr, ...) @fprintf(ptr noundef %114, ptr noundef @.str.7) #9
  store i32 0, ptr %11, align 4
  br label %116

116:                                              ; preds = %113, %28, %17
  call void @llvm.lifetime.end.p0(i64 1, ptr %10) #9
  call void @llvm.lifetime.end.p0(i64 4, ptr %9) #9
  call void @llvm.lifetime.end.p0(i64 4, ptr %8) #9
  call void @llvm.lifetime.end.p0(i64 8, ptr %7) #9
  %117 = load i32, ptr %11, align 4
  switch i32 %117, label %119 [
    i32 0, label %118
    i32 1, label %118
  ]

118:                                              ; preds = %116, %116
  ret void

119:                                              ; preds = %116
  unreachable
}