; Function Attrs: nofree nounwind uwtable
define void @Kit_DsdPrint_rec(ptr noundef captures(none) %0, ptr noundef readonly captures(none) %1, i32 noundef %2) local_unnamed_addr #10 {
  %4 = load i16, ptr %1, align 8, !tbaa !34
  %5 = zext i16 %4 to i32
  %6 = icmp slt i32 %2, %5
  br i1 %6, label %Kit_DsdNtkObj.exit.thread, label %Kit_DsdNtkObj.exit

Kit_DsdNtkObj.exit:                               ; preds = %3
  %7 = getelementptr inbounds nuw i8, ptr %1, i64 24
  %8 = load ptr, ptr %7, align 8, !tbaa !40
  %9 = sub nsw i32 %2, %5
  %10 = sext i32 %9 to i64
  %11 = getelementptr inbounds ptr, ptr %8, i64 %10
  %12 = load ptr, ptr %11, align 8, !tbaa !41
  %13 = icmp eq ptr %12, null
  br i1 %13, label %Kit_DsdNtkObj.exit.thread, label %15

Kit_DsdNtkObj.exit.thread:                        ; preds = %3, %Kit_DsdNtkObj.exit
  %14 = add nsw i32 %2, 97
  %fputc35 = tail call i32 @fputc(i32 %14, ptr %0)
  br label %70

15:                                               ; preds = %Kit_DsdNtkObj.exit
  %16 = load i32, ptr %12, align 4
  %17 = lshr i32 %16, 6
  %18 = and i32 %17, 7
  switch i32 %18, label %22 [
    i32 1, label %19
    i32 3, label %23
    i32 4, label %21
  ]

19:                                               ; preds = %15
  %20 = tail call i64 @fwrite(ptr nonnull @.str.2, i64 6, i64 1, ptr %0)
  br label %70

21:                                               ; preds = %15
  br label %23

22:                                               ; preds = %15
  br label %23

23:                                               ; preds = %15, %21, %22
  %.0 = phi i32 [ 43, %21 ], [ 44, %22 ], [ 42, %15 ]
  %24 = and i32 %16, 448
  %25 = icmp eq i32 %24, 320
  br i1 %25, label %26, label %Kit_DsdPrintHex.exit

26:                                               ; preds = %23
  %27 = getelementptr inbounds nuw i8, ptr %12, i64 4
  %28 = lshr i32 %16, 10
  %29 = and i32 %28, 255
  %30 = zext nneg i32 %29 to i64
  %31 = getelementptr inbounds nuw i32, ptr %27, i64 %30
  %32 = lshr i32 %16, 26
  %33 = shl nuw i32 1, %32
  %34 = icmp sgt i32 %33, 3
  br i1 %34, label %.lr.ph.preheader.i, label %Kit_DsdPrintHex.exit

.lr.ph.preheader.i:                               ; preds = %26
  %35 = lshr i32 %33, 2
  br label %.lr.ph.i

.lr.ph.i:                                         ; preds = %49, %.lr.ph.preheader.i
  %.013.in.i = phi i32 [ %.013.i, %49 ], [ %35, %.lr.ph.preheader.i ]
  %.013.i = add nsw i32 %.013.in.i, -1
  %36 = lshr i32 %.013.i, 3
  %37 = zext nneg i32 %36 to i64
  %38 = getelementptr inbounds nuw i32, ptr %31, i64 %37
  %39 = load i32, ptr %38, align 4, !tbaa !20
  %40 = shl i32 %.013.i, 2
  %41 = and i32 %40, 28
  %42 = lshr i32 %39, %41
  %43 = and i32 %42, 15
  %44 = icmp samesign ult i32 %43, 10
  br i1 %44, label %45, label %47

45:                                               ; preds = %.lr.ph.i
  %46 = tail call i32 (ptr, ptr, ...) @fprintf(ptr noundef %0, ptr noundef nonnull @.str, i32 noundef %43) #27
  br label %49

47:                                               ; preds = %.lr.ph.i
  %48 = add nuw nsw i32 %43, 55
  %fputc.i = tail call i32 @fputc(i32 %48, ptr %0)
  br label %49

49:                                               ; preds = %47, %45
  %50 = icmp samesign ugt i32 %.013.in.i, 1
  br i1 %50, label %.lr.ph.i, label %Kit_DsdPrintHex.exit, !llvm.loop !46

Kit_DsdPrintHex.exit:                             ; preds = %49, %26, %23
  %fputc = tail call i32 @fputc(i32 40, ptr %0)
  %51 = load i32, ptr %12, align 4
  %.not37 = icmp ult i32 %51, 67108864
  br i1 %.not37, label %.critedge, label %.lr.ph

.lr.ph:                                           ; preds = %Kit_DsdPrintHex.exit
  %52 = getelementptr inbounds nuw i8, ptr %12, i64 4
  br label %53

53:                                               ; preds = %.lr.ph, %67
  %indvars.iv = phi i64 [ 0, %.lr.ph ], [ %indvars.iv.next, %67 ]
  %54 = getelementptr inbounds nuw [0 x i16], ptr %52, i64 0, i64 %indvars.iv
  %55 = load i16, ptr %54, align 2, !tbaa !49
  %56 = zext i16 %55 to i32
  %57 = and i32 %56, 1
  %.not = icmp eq i32 %57, 0
  br i1 %.not, label %59, label %58

58:                                               ; preds = %53
  %fputc33 = tail call i32 @fputc(i32 33, ptr %0)
  br label %59

59:                                               ; preds = %58, %53
  %60 = lshr i32 %56, 1
  tail call void @Kit_DsdPrint_rec(ptr noundef %0, ptr noundef nonnull %1, i32 noundef %60)
  %61 = load i32, ptr %12, align 4
  %62 = lshr i32 %61, 26
  %63 = add nsw i32 %62, -1
  %64 = zext i32 %63 to i64
  %65 = icmp samesign ult i64 %indvars.iv, %64
  br i1 %65, label %66, label %67

66:                                               ; preds = %59
  %fputc34 = tail call i32 @fputc(i32 %.0, ptr %0)
  %.pre = load i32, ptr %12, align 4
  %.pre39 = lshr i32 %.pre, 26
  br label %67

67:                                               ; preds = %59, %66
  %.pre-phi = phi i32 [ %62, %59 ], [ %.pre39, %66 ]
  %indvars.iv.next = add nuw nsw i64 %indvars.iv, 1
  %68 = zext nneg i32 %.pre-phi to i64
  %69 = icmp samesign ult i64 %indvars.iv.next, %68
  br i1 %69, label %53, label %.critedge, !llvm.loop !52

.critedge:                                        ; preds = %67, %Kit_DsdPrintHex.exit
  %fputc32 = tail call i32 @fputc(i32 41, ptr %0)
  br label %70

70:                                               ; preds = %.critedge, %19, %Kit_DsdNtkObj.exit.thread
  ret void
}